target datalayout = "e-m:e-p270:32:32-p271:32:32-p272:64:64-i64:64-i128:128-f80:128-n8:16:32:64-S128"
target triple = "x86_64-unknown-linux-gnu"

%struct.TCGContext = type { ptr, ptr, ptr, ptr, ptr, i32, i32, i32, i32, i32, i32, i32, i8, i8, i8, i32, i32, i64, i64, i64, ptr, ptr, ptr, ptr, ptr, i64, ptr, ptr, ptr, ptr, %struct.anon, ptr, ptr, ptr, ptr, [6 x ptr], [6 x %struct.TCGTempSet], [512 x %struct.TCGTemp], %union.anon, %union.anon, %struct.anon.0, [32 x ptr], [512 x i16], ptr, [1 x %struct.__jmp_buf_tag] }
%struct.anon = type { ptr, ptr }
%struct.TCGTempSet = type { [8 x i64] }
%struct.TCGTemp = type { i48, i64, ptr, i64, ptr, i64, ptr }
%union.anon = type { %struct.QTailQLink }
%struct.QTailQLink = type { ptr, ptr }
%struct.anon.0 = type { ptr, ptr }
%struct.__jmp_buf_tag = type { [8 x i64], i32, %struct.__sigset_t }
%struct.__sigset_t = type { [16 x i64] }
%struct.qemu_plugin_insn = type { ptr, i64, ptr, [2 x [2 x ptr]], i8, i8, i8 }
%struct._GByteArray = type { ptr, i32 }

@tcg_ctx = external thread_local global ptr, align 8
@.str.3 = private unnamed_addr constant [31 x i8] c"../qemu/accel/tcg/translator.c\00", align 1
@__func__.plugin_insn_append = private unnamed_addr constant [19 x i8] c"plugin_insn_append\00", align 1

; Function Attrs: nounwind sspstrong uwtable
define internal void @plugin_insn_append(i64 noundef %pc, ptr noundef %from, i64 noundef %size) #0 {
entry:
  %pc.addr = alloca i64, align 8
  %from.addr = alloca ptr, align 8
  %size.addr = alloca i64, align 8
  %insn = alloca ptr, align 8
  %off = alloca i64, align 8
  store i64 %pc, ptr %pc.addr, align 8
  store ptr %from, ptr %from.addr, align 8
  store i64 %size, ptr %size.addr, align 8
  %0 = call align 8 ptr @llvm.threadlocal.address.p0(ptr align 8 @tcg_ctx)
  %1 = load ptr, ptr %0, align 8
  %plugin_insn = getelementptr inbounds %struct.TCGContext, ptr %1, i32 0, i32 34
  %2 = load ptr, ptr %plugin_insn, align 8
  store ptr %2, ptr %insn, align 8
  %3 = load ptr, ptr %insn, align 8
  %cmp = icmp eq ptr %3, null
  br i1 %cmp, label %if.then, label %if.end

if.then:                                          ; preds = %entry
  br label %return

if.end:                                           ; preds = %entry
  %4 = load i64, ptr %pc.addr, align 8
  %5 = load ptr, ptr %insn, align 8
  %vaddr = getelementptr inbounds %struct.qemu_plugin_insn, ptr %5, i32 0, i32 1
  %6 = load i64, ptr %vaddr, align 8
  %sub = sub i64 %4, %6
  store i64 %sub, ptr %off, align 8
  %7 = load i64, ptr %off, align 8
  %8 = load ptr, ptr %insn, align 8
  %data = getelementptr inbounds %struct.qemu_plugin_insn, ptr %8, i32 0, i32 0
  %9 = load ptr, ptr %data, align 8
  %len = getelementptr inbounds %struct._GByteArray, ptr %9, i32 0, i32 1
  %10 = load i32, ptr %len, align 8
  %conv = zext i32 %10 to i64
  %cmp1 = icmp ult i64 %7, %conv
  br i1 %cmp1, label %if.then3, label %if.else

if.then3:                                         ; preds = %if.end
  %11 = load ptr, ptr %insn, align 8
  %data4 = getelementptr inbounds %struct.qemu_plugin_insn, ptr %11, i32 0, i32 0
  %12 = load ptr, ptr %data4, align 8
  %13 = load i64, ptr %off, align 8
  %conv5 = trunc i64 %13 to i32
  %call = call ptr @g_byte_array_set_size(ptr noundef %12, i32 noundef %conv5)
  br label %if.end13

if.else:                                          ; preds = %if.end
  %14 = load i64, ptr %off, align 8
  %15 = load ptr, ptr %insn, align 8
  %data6 = getelementptr inbounds %struct.qemu_plugin_insn, ptr %15, i32 0, i32 0
  %16 = load ptr, ptr %data6, align 8
  %len7 = getelementptr inbounds %struct._GByteArray, ptr %16, i32 0, i32 1
  %17 = load i32, ptr %len7, align 8
  %conv8 = zext i32 %17 to i64
  %cmp9 = icmp ugt i64 %14, %conv8
  br i1 %cmp9, label %if.then11, label %if.end12

if.then11:                                        ; preds = %if.else
  br label %do.body

do.body:                                          ; preds = %if.then11
  call void @g_assertion_message_expr(ptr noundef null, ptr noundef @.str.3, i32 noundef 307, ptr noundef @__func__.plugin_insn_append, ptr noundef null) #5
  unreachable

do.end:                                           ; No predecessors!
  br label %if.end12

if.end12:                                         ; preds = %do.end, %if.else
  br label %if.end13

if.end13:                                         ; preds = %if.end12, %if.then3
  %18 = load ptr, ptr %insn, align 8
  %data14 = getelementptr inbounds %struct.qemu_plugin_insn, ptr %18, i32 0, i32 0
  %19 = load ptr, ptr %data14, align 8
  %20 = load ptr, ptr %from.addr, align 8
  %21 = load i64, ptr %size.addr, align 8
  %conv15 = trunc i64 %21 to i32
  %call16 = call ptr @g_byte_array_append(ptr noundef %19, ptr noundef %20, i32 noundef %conv15)
  %22 = load ptr, ptr %insn, align 8
  %data17 = getelementptr inbounds %struct.qemu_plugin_insn, ptr %22, i32 0, i32 0
  store ptr %call16, ptr %data17, align 8
  br label %return

return:                                           ; preds = %if.end13, %if.then
  ret void
}

; Function Attrs: nounwind sspstrong uwtable
define dso_local void @translator_fake_ldb(i8 noundef zeroext %insn8, i64 noundef %pc) #0 {
entry:
  %insn8.addr = alloca i8, align 1
  %pc.addr = alloca i64, align 8
  store i8 %insn8, ptr %insn8.addr, align 1
  store i64 %pc, ptr %pc.addr, align 8
  %0 = load i64, ptr %pc.addr, align 8
  call void @plugin_insn_append(i64 noundef %0, ptr noundef %insn8.addr, i64 noundef 1)
  ret void
}