; Function Attrs: nounwind sspstrong uwtable
define dso_local void @translator_fake_ldb(i8 noundef zeroext %insn8, i64 noundef %pc) local_unnamed_addr #0 {
entry:
  %insn8.addr = alloca i8, align 1
  store i8 %insn8, ptr %insn8.addr, align 1
  %0 = tail call align 8 ptr @llvm.threadlocal.address.p0(ptr align 8 @tcg_ctx)
  %1 = load ptr, ptr %0, align 8
  %plugin_insn.i = getelementptr inbounds nuw i8, ptr %1, i64 224
  %2 = load ptr, ptr %plugin_insn.i, align 8
  %cmp.i = icmp eq ptr %2, null
  br i1 %cmp.i, label %plugin_insn_append.exit, label %if.end.i

if.end.i:                                         ; preds = %entry
  %vaddr.i = getelementptr inbounds nuw i8, ptr %2, i64 8
  %3 = load i64, ptr %vaddr.i, align 8
  %sub.i = sub i64 %pc, %3
  %4 = load ptr, ptr %2, align 8
  %len.i = getelementptr inbounds nuw i8, ptr %4, i64 8
  %5 = load i32, ptr %len.i, align 8
  %conv.i = zext i32 %5 to i64
  %cmp1.i = icmp ult i64 %sub.i, %conv.i
  br i1 %cmp1.i, label %if.then3.i, label %if.else.i

if.then3.i:                                       ; preds = %if.end.i
  %conv5.i = trunc nuw i64 %sub.i to i32
  %call.i = tail call ptr @g_byte_array_set_size(ptr noundef nonnull %4, i32 noundef %conv5.i) #8
  %.pre.i = load ptr, ptr %2, align 8
  br label %if.end13.i

if.else.i:                                        ; preds = %if.end.i
  %cmp9.i = icmp ugt i64 %sub.i, %conv.i
  br i1 %cmp9.i, label %do.body.i, label %if.end13.i

do.body.i:                                        ; preds = %if.else.i
  tail call void @g_assertion_message_expr(ptr noundef null, ptr noundef nonnull @.str.3, i32 noundef 307, ptr noundef nonnull @__func__.plugin_insn_append, ptr noundef null) #9
  unreachable

if.end13.i:                                       ; preds = %if.else.i, %if.then3.i
  %6 = phi ptr [ %4, %if.else.i ], [ %.pre.i, %if.then3.i ]
  %call16.i = call ptr @g_byte_array_append(ptr noundef %6, ptr noundef nonnull %insn8.addr, i32 noundef 1) #8
  store ptr %call16.i, ptr %2, align 8
  br label %plugin_insn_append.exit

plugin_insn_append.exit:                          ; preds = %entry, %if.end13.i
  ret void
}